; Function Attrs: nounwind uwtable
define internal i32 @parse_server_srp_user(ptr noundef captures(none) %0, ptr noundef %1) #1 {
  %3 = getelementptr inbounds nuw i8, ptr %0, i64 32
  %4 = load ptr, ptr %3, align 8, !tbaa !72
  tail call void @CRYPTO_free(ptr noundef %4, ptr noundef nonnull @.str, i32 noundef 361) #8
  %5 = tail call noalias ptr @CRYPTO_strdup(ptr noundef %1, ptr noundef nonnull @.str, i32 noundef 361) #8
  store ptr %5, ptr %3, align 8, !tbaa !72
  %6 = tail call i32 @test_ptr(ptr noundef nonnull @.str, i32 noundef 361, ptr noundef nonnull @.str.91, ptr noundef %5) #8
  ret i32 %6
}